target datalayout = "e-m:e-p270:32:32-p271:32:32-p272:64:64-i64:64-i128:128-f80:128-n8:16:32:64-S128"
target triple = "x86_64-unknown-linux-gnu"

%"class.boost::detail::shared_count" = type { ptr }
%"class.boost::shared_ptr.29" = type { ptr, %"class.boost::detail::shared_count" }
%"class.QuantLib::Handle" = type { %"class.boost::shared_ptr.30" }
%"class.boost::shared_ptr.30" = type { ptr, %"class.boost::detail::shared_count" }
%"class.QuantLib::Handle.31" = type { %"class.boost::shared_ptr.32" }
%"class.boost::shared_ptr.32" = type { ptr, %"class.boost::detail::shared_count" }
%"class.boost::detail::sp_counted_base" = type { ptr, i32, i32 }

; Function Attrs: inlinehint mustprogress nounwind uwtable
define linkonce_odr void @_ZN5boost6detail16atomic_incrementEPj(ptr noundef %pw) #5 comdat {
entry:
  %pw.addr = alloca ptr, align 8
  %.atomictmp = alloca i32, align 4
  %atomic-temp = alloca i32, align 4
  store ptr %pw, ptr %pw.addr, align 8, !tbaa !3
  %0 = load ptr, ptr %pw.addr, align 8, !tbaa !3
  store i32 1, ptr %.atomictmp, align 4, !tbaa !62
  %1 = load i32, ptr %.atomictmp, align 4
  %2 = atomicrmw add ptr %0, i32 %1 monotonic, align 4
  store i32 %2, ptr %atomic-temp, align 4
  ret void
}

; Function Attrs: mustprogress uwtable
define linkonce_odr void @_ZN5boost6detail15sp_counted_base12add_ref_copyEv(ptr noundef nonnull align 8 dereferenceable(16) %this) #2 comdat align 2 {
entry:
  %this.addr = alloca ptr, align 8
  store ptr %this, ptr %this.addr, align 8, !tbaa !3
  %this1 = load ptr, ptr %this.addr, align 8
  %use_count_ = getelementptr inbounds nuw %"class.boost::detail::sp_counted_base", ptr %this1, i32 0, i32 1
  call void @_ZN5boost6detail16atomic_incrementEPj(ptr noundef %use_count_)
  ret void
}

; Function Attrs: mustprogress nounwind uwtable
define linkonce_odr void @_ZN5boost10shared_ptrIN8QuantLib6HandleINS1_18YieldTermStructureEE4LinkEEC2ERKS6_(ptr noundef nonnull align 8 dereferenceable(16) %this, ptr noundef nonnull align 8 dereferenceable(16) %r) unnamed_addr #1 comdat align 2 {
entry:
  %this.addr = alloca ptr, align 8
  %r.addr = alloca ptr, align 8
  store ptr %this, ptr %this.addr, align 8, !tbaa !3
  store ptr %r, ptr %r.addr, align 8, !tbaa !3
  %this1 = load ptr, ptr %this.addr, align 8
  %px = getelementptr inbounds nuw %"class.boost::shared_ptr.32", ptr %this1, i32 0, i32 0
  %0 = load ptr, ptr %r.addr, align 8, !tbaa !3
  %px2 = getelementptr inbounds nuw %"class.boost::shared_ptr.32", ptr %0, i32 0, i32 0
  %1 = load ptr, ptr %px2, align 8, !tbaa !116
  store ptr %1, ptr %px, align 8, !tbaa !116
  %pn = getelementptr inbounds nuw %"class.boost::shared_ptr.32", ptr %this1, i32 0, i32 1
  %2 = load ptr, ptr %r.addr, align 8, !tbaa !3
  %pn3 = getelementptr inbounds nuw %"class.boost::shared_ptr.32", ptr %2, i32 0, i32 1
  call void @_ZN5boost6detail12shared_countC2ERKS1_(ptr noundef nonnull align 8 dereferenceable(8) %pn, ptr noundef nonnull align 8 dereferenceable(8) %pn3) #12
  ret void
}

; Function Attrs: mustprogress nounwind uwtable
define linkonce_odr void @_ZN5boost10shared_ptrIN8QuantLib6HandleINS1_29YoYOptionletVolatilitySurfaceEE4LinkEEC2ERKS6_(ptr noundef nonnull align 8 dereferenceable(16) %this, ptr noundef nonnull align 8 dereferenceable(16) %r) unnamed_addr #1 comdat align 2 {
entry:
  %this.addr = alloca ptr, align 8
  %r.addr = alloca ptr, align 8
  store ptr %this, ptr %this.addr, align 8, !tbaa !3
  store ptr %r, ptr %r.addr, align 8, !tbaa !3
  %this1 = load ptr, ptr %this.addr, align 8
  %px = getelementptr inbounds nuw %"class.boost::shared_ptr.30", ptr %this1, i32 0, i32 0
  %0 = load ptr, ptr %r.addr, align 8, !tbaa !3
  %px2 = getelementptr inbounds nuw %"class.boost::shared_ptr.30", ptr %0, i32 0, i32 0
  %1 = load ptr, ptr %px2, align 8, !tbaa !114
  store ptr %1, ptr %px, align 8, !tbaa !114
  %pn = getelementptr inbounds nuw %"class.boost::shared_ptr.30", ptr %this1, i32 0, i32 1
  %2 = load ptr, ptr %r.addr, align 8, !tbaa !3
  %pn3 = getelementptr inbounds nuw %"class.boost::shared_ptr.30", ptr %2, i32 0, i32 1
  call void @_ZN5boost6detail12shared_countC2ERKS1_(ptr noundef nonnull align 8 dereferenceable(8) %pn, ptr noundef nonnull align 8 dereferenceable(8) %pn3) #12
  ret void
}

; Function Attrs: mustprogress nounwind uwtable
define linkonce_odr void @_ZN5boost6detail12shared_countC2ERKS1_(ptr noundef nonnull align 8 dereferenceable(8) %this, ptr noundef nonnull align 8 dereferenceable(8) %r) unnamed_addr #1 comdat align 2 personality ptr @__gxx_personality_v0 {
entry:
  %this.addr = alloca ptr, align 8
  %r.addr = alloca ptr, align 8
  store ptr %this, ptr %this.addr, align 8, !tbaa !3
  store ptr %r, ptr %r.addr, align 8, !tbaa !3
  %this1 = load ptr, ptr %this.addr, align 8
  %pi_ = getelementptr inbounds nuw %"class.boost::detail::shared_count", ptr %this1, i32 0, i32 0
  %0 = load ptr, ptr %r.addr, align 8, !tbaa !3
  %pi_2 = getelementptr inbounds nuw %"class.boost::detail::shared_count", ptr %0, i32 0, i32 0
  %1 = load ptr, ptr %pi_2, align 8, !tbaa !105
  store ptr %1, ptr %pi_, align 8, !tbaa !105
  %pi_3 = getelementptr inbounds nuw %"class.boost::detail::shared_count", ptr %this1, i32 0, i32 0
  %2 = load ptr, ptr %pi_3, align 8, !tbaa !105
  %cmp = icmp ne ptr %2, null
  br i1 %cmp, label %if.then, label %if.end

if.then:                                          ; preds = %entry
  %pi_4 = getelementptr inbounds nuw %"class.boost::detail::shared_count", ptr %this1, i32 0, i32 0
  %3 = load ptr, ptr %pi_4, align 8, !tbaa !105
  invoke void @_ZN5boost6detail15sp_counted_base12add_ref_copyEv(ptr noundef nonnull align 8 dereferenceable(16) %3)
          to label %invoke.cont unwind label %terminate.lpad

invoke.cont:                                      ; preds = %if.then
  br label %if.end

if.end:                                           ; preds = %invoke.cont, %entry
  ret void

terminate.lpad:                                   ; preds = %if.then
  %4 = landingpad { ptr, i32 }
          catch ptr null
  %5 = extractvalue { ptr, i32 } %4, 0
  call void @__clang_call_terminate(ptr %5) #19
  unreachable
}

; Function Attrs: inlinehint mustprogress nounwind uwtable
define linkonce_odr void @_ZN8QuantLib6HandleINS_18YieldTermStructureEEC2ERKS2_(ptr noundef nonnull align 8 dereferenceable(16) %this, ptr noundef nonnull align 8 dereferenceable(16) %0) unnamed_addr #5 comdat align 2 {
entry:
  %this.addr = alloca ptr, align 8
  %.addr = alloca ptr, align 8
  store ptr %this, ptr %this.addr, align 8, !tbaa !3
  store ptr %0, ptr %.addr, align 8, !tbaa !3
  %this1 = load ptr, ptr %this.addr, align 8
  %link_ = getelementptr inbounds nuw %"class.QuantLib::Handle.31", ptr %this1, i32 0, i32 0
  %1 = load ptr, ptr %.addr, align 8, !tbaa !3
  %link_2 = getelementptr inbounds nuw %"class.QuantLib::Handle.31", ptr %1, i32 0, i32 0
  call void @_ZN5boost10shared_ptrIN8QuantLib6HandleINS1_18YieldTermStructureEE4LinkEEC2ERKS6_(ptr noundef nonnull align 8 dereferenceable(16) %link_, ptr noundef nonnull align 8 dereferenceable(16) %link_2) #12
  ret void
}

; Function Attrs: inlinehint mustprogress nounwind uwtable
define linkonce_odr void @_ZN8QuantLib6HandleINS_29YoYOptionletVolatilitySurfaceEEC2ERKS2_(ptr noundef nonnull align 8 dereferenceable(16) %this, ptr noundef nonnull align 8 dereferenceable(16) %0) unnamed_addr #5 comdat align 2 {
entry:
  %this.addr = alloca ptr, align 8
  %.addr = alloca ptr, align 8
  store ptr %this, ptr %this.addr, align 8, !tbaa !3
  store ptr %0, ptr %.addr, align 8, !tbaa !3
  %this1 = load ptr, ptr %this.addr, align 8
  %link_ = getelementptr inbounds nuw %"class.QuantLib::Handle", ptr %this1, i32 0, i32 0
  %1 = load ptr, ptr %.addr, align 8, !tbaa !3
  %link_2 = getelementptr inbounds nuw %"class.QuantLib::Handle", ptr %1, i32 0, i32 0
  call void @_ZN5boost10shared_ptrIN8QuantLib6HandleINS1_29YoYOptionletVolatilitySurfaceEE4LinkEEC2ERKS6_(ptr noundef nonnull align 8 dereferenceable(16) %link_, ptr noundef nonnull align 8 dereferenceable(16) %link_2) #12
  ret void
}

; Function Attrs: mustprogress nounwind uwtable
define linkonce_odr void @_ZN5boost10shared_ptrIN8QuantLib17YoYInflationIndexEEC2ERKS3_(ptr noundef nonnull align 8 dereferenceable(16) %this, ptr noundef nonnull align 8 dereferenceable(16) %r) unnamed_addr #1 comdat align 2 {
entry:
  %this.addr = alloca ptr, align 8
  %r.addr = alloca ptr, align 8
  store ptr %this, ptr %this.addr, align 8, !tbaa !3
  store ptr %r, ptr %r.addr, align 8, !tbaa !3
  %this1 = load ptr, ptr %this.addr, align 8
  %px = getelementptr inbounds nuw %"class.boost::shared_ptr.29", ptr %this1, i32 0, i32 0
  %0 = load ptr, ptr %r.addr, align 8, !tbaa !3
  %px2 = getelementptr inbounds nuw %"class.boost::shared_ptr.29", ptr %0, i32 0, i32 0
  %1 = load ptr, ptr %px2, align 8, !tbaa !14
  store ptr %1, ptr %px, align 8, !tbaa !14
  %pn = getelementptr inbounds nuw %"class.boost::shared_ptr.29", ptr %this1, i32 0, i32 1
  %2 = load ptr, ptr %r.addr, align 8, !tbaa !3
  %pn3 = getelementptr inbounds nuw %"class.boost::shared_ptr.29", ptr %2, i32 0, i32 1
  call void @_ZN5boost6detail12shared_countC2ERKS1_(ptr noundef nonnull align 8 dereferenceable(8) %pn, ptr noundef nonnull align 8 dereferenceable(8) %pn3) #12
  ret void
}

; Function Attrs: mustprogress uwtable
define void @_ZN8QuantLib44YoYInflationUnitDisplacedBlackCapFloorEngineC2ERKN5boost10shared_ptrINS_17YoYInflationIndexEEERKNS_6HandleINS_29YoYOptionletVolatilitySurfaceEEERKNS7_INS_18YieldTermStructureEEE(ptr noundef nonnull align 8 dereferenceable(496) %this, ptr noundef nonnull align 8 dereferenceable(16) %index, ptr noundef nonnull align 8 dereferenceable(16) %volatility, ptr noundef nonnull align 8 dereferenceable(16) %nominalTermStructure) unnamed_addr #2 align 2 personality ptr @__gxx_personality_v0 {
entry:
  %this.addr = alloca ptr, align 8
  %index.addr = alloca ptr, align 8
  %volatility.addr = alloca ptr, align 8
  %nominalTermStructure.addr = alloca ptr, align 8
  %agg.tmp = alloca %"class.boost::shared_ptr.29", align 8
  %agg.tmp2 = alloca %"class.QuantLib::Handle", align 8
  %agg.tmp3 = alloca %"class.QuantLib::Handle.31", align 8
  %exn.slot = alloca ptr, align 8
  %ehselector.slot = alloca i32, align 4
  store ptr %this, ptr %this.addr, align 8, !tbaa !3
  store ptr %index, ptr %index.addr, align 8, !tbaa !3
  store ptr %volatility, ptr %volatility.addr, align 8, !tbaa !3
  store ptr %nominalTermStructure, ptr %nominalTermStructure.addr, align 8, !tbaa !3
  %this1 = load ptr, ptr %this.addr, align 8
  %0 = load ptr, ptr %index.addr, align 8, !tbaa !3
  call void @_ZN5boost10shared_ptrIN8QuantLib17YoYInflationIndexEEC2ERKS3_(ptr noundef nonnull align 8 dereferenceable(16) %agg.tmp, ptr noundef nonnull align 8 dereferenceable(16) %0) #12
  %1 = load ptr, ptr %volatility.addr, align 8, !tbaa !3
  call void @_ZN8QuantLib6HandleINS_29YoYOptionletVolatilitySurfaceEEC2ERKS2_(ptr noundef nonnull align 8 dereferenceable(16) %agg.tmp2, ptr noundef nonnull align 8 dereferenceable(16) %1) #12
  %2 = load ptr, ptr %nominalTermStructure.addr, align 8, !tbaa !3
  call void @_ZN8QuantLib6HandleINS_18YieldTermStructureEEC2ERKS2_(ptr noundef nonnull align 8 dereferenceable(16) %agg.tmp3, ptr noundef nonnull align 8 dereferenceable(16) %2) #12
  invoke void @_ZN8QuantLib26YoYInflationCapFloorEngineC2EN5boost10shared_ptrINS_17YoYInflationIndexEEENS_6HandleINS_29YoYOptionletVolatilitySurfaceEEENS5_INS_18YieldTermStructureEEE(ptr noundef nonnull align 8 dereferenceable(496) %this1, ptr noundef %agg.tmp, ptr noundef %agg.tmp2, ptr noundef %agg.tmp3)
          to label %invoke.cont unwind label %lpad

invoke.cont:                                      ; preds = %entry
  call void @_ZN8QuantLib6HandleINS_18YieldTermStructureEED2Ev(ptr noundef nonnull align 8 dereferenceable(16) %agg.tmp3) #12
  call void @_ZN8QuantLib6HandleINS_29YoYOptionletVolatilitySurfaceEED2Ev(ptr noundef nonnull align 8 dereferenceable(16) %agg.tmp2) #12
  call void @_ZN5boost10shared_ptrIN8QuantLib17YoYInflationIndexEED2Ev(ptr noundef nonnull align 8 dereferenceable(16) %agg.tmp) #12
  store ptr getelementptr inbounds inrange(-16, 64) ({ [10 x ptr], [6 x ptr] }, ptr @_ZTVN8QuantLib44YoYInflationUnitDisplacedBlackCapFloorEngineE, i32 0, i32 0, i32 2), ptr %this1, align 8, !tbaa !12
  %add.ptr = getelementptr inbounds i8, ptr %this1, i64 56
  store ptr getelementptr inbounds inrange(-16, 32) ({ [10 x ptr], [6 x ptr] }, ptr @_ZTVN8QuantLib44YoYInflationUnitDisplacedBlackCapFloorEngineE, i32 0, i32 1, i32 2), ptr %add.ptr, align 8, !tbaa !12
  ret void

lpad:                                             ; preds = %entry
  %3 = landingpad { ptr, i32 }
          cleanup
  %4 = extractvalue { ptr, i32 } %3, 0
  store ptr %4, ptr %exn.slot, align 8
  %5 = extractvalue { ptr, i32 } %3, 1
  store i32 %5, ptr %ehselector.slot, align 4
  call void @_ZN8QuantLib6HandleINS_18YieldTermStructureEED2Ev(ptr noundef nonnull align 8 dereferenceable(16) %agg.tmp3) #12
  call void @_ZN8QuantLib6HandleINS_29YoYOptionletVolatilitySurfaceEED2Ev(ptr noundef nonnull align 8 dereferenceable(16) %agg.tmp2) #12
  call void @_ZN5boost10shared_ptrIN8QuantLib17YoYInflationIndexEED2Ev(ptr noundef nonnull align 8 dereferenceable(16) %agg.tmp) #12
  br label %eh.resume

eh.resume:                                        ; preds = %lpad
  %exn = load ptr, ptr %exn.slot, align 8
  %sel = load i32, ptr %ehselector.slot, align 4
  %lpad.val = insertvalue { ptr, i32 } poison, ptr %exn, 0
  %lpad.val4 = insertvalue { ptr, i32 } %lpad.val, i32 %sel, 1
  resume { ptr, i32 } %lpad.val4
}